target datalayout = "e-m:e-p270:32:32-p271:32:32-p272:64:64-i64:64-i128:128-f80:128-n8:16:32:64-S128"
target triple = "x86_64-pc-linux-gnu"

%struct.VVCTask = type { %union.anon.2, i32, i32, i32, i32, ptr, %struct.ProgressListener, [2 x [29 x %struct.ProgressListener]], ptr, ptr, i32, [10 x i8], i8 }
%union.anon.2 = type { %struct.FFTask }
%struct.FFTask = type { ptr, i32 }
%struct.ProgressListener = type { %struct.VVCProgressListener, ptr, ptr }
%struct.VVCProgressListener = type { i32, i32, ptr, ptr }

; Function Attrs: nounwind uwtable
define internal i32 @run_recon(ptr noundef %0, ptr noundef %1, ptr noundef %2) #0 {
  %4 = alloca ptr, align 8
  %5 = alloca ptr, align 8
  %6 = alloca ptr, align 8
  store ptr %0, ptr %4, align 8, !tbaa !4
  store ptr %1, ptr %5, align 8, !tbaa !21
  store ptr %2, ptr %6, align 8, !tbaa !19
  %7 = load ptr, ptr %5, align 8, !tbaa !21
  %8 = load ptr, ptr %6, align 8, !tbaa !19
  %9 = getelementptr inbounds nuw %struct.VVCTask, ptr %8, i32 0, i32 4
  %10 = load i32, ptr %9, align 4, !tbaa !108
  %11 = load ptr, ptr %6, align 8, !tbaa !19
  %12 = getelementptr inbounds nuw %struct.VVCTask, ptr %11, i32 0, i32 2
  %13 = load i32, ptr %12, align 4, !tbaa !78
  %14 = load ptr, ptr %6, align 8, !tbaa !19
  %15 = getelementptr inbounds nuw %struct.VVCTask, ptr %14, i32 0, i32 3
  %16 = load i32, ptr %15, align 8, !tbaa !79
  %17 = call i32 @ff_vvc_reconstruct(ptr noundef %7, i32 noundef %10, i32 noundef %13, i32 noundef %16)
  ret i32 %17
}