; Function Attrs: nounwind uwtable
define internal i32 @run_recon(ptr readnone captures(none) %0, ptr noundef %1, ptr noundef readonly captures(none) %2) #0 {
  %4 = getelementptr inbounds nuw i8, ptr %2, i64 28
  %5 = load i32, ptr %4, align 4, !tbaa !111
  %6 = getelementptr inbounds nuw i8, ptr %2, i64 20
  %7 = load i32, ptr %6, align 4, !tbaa !82
  %8 = getelementptr inbounds nuw i8, ptr %2, i64 24
  %9 = load i32, ptr %8, align 8, !tbaa !83
  %10 = tail call i32 @ff_vvc_reconstruct(ptr noundef %1, i32 noundef %5, i32 noundef %7, i32 noundef %9) #7
  ret i32 %10
}